target datalayout = "e-m:e-p270:32:32-p271:32:32-p272:64:64-i64:64-i128:128-f80:128-n8:16:32:64-S128"
target triple = "x86_64-pc-linux-gnu"

%"class.pxrInternal_v0_24__pxrReserved__::TfEnum" = type <{ ptr, i32, [4 x i8] }>
%class.anon = type { ptr, %"class.pxrInternal_v0_24__pxrReserved__::TfEnum" }

; Function Attrs: mustprogress uwtable
define internal void @"_ZZN32pxrInternal_v0_24__pxrReserved__6TfEnum8_AddNameES0_PKcS2_ENK3$_0clEv"(ptr noundef nonnull align 8 dereferenceable(24) %0) #4 align 2 {
  %2 = alloca ptr, align 8
  %3 = alloca %"class.pxrInternal_v0_24__pxrReserved__::TfEnum", align 8
  store ptr %0, ptr %2, align 8
  %4 = load ptr, ptr %2, align 8
  %5 = getelementptr inbounds nuw %class.anon, ptr %4, i32 0, i32 0
  %6 = load ptr, ptr %5, align 8
  %7 = getelementptr inbounds nuw %class.anon, ptr %4, i32 0, i32 1
  call void @llvm.memcpy.p0.p0.i64(ptr align 8 %3, ptr align 8 %7, i64 16, i1 false)
  %8 = getelementptr inbounds nuw { ptr, i32 }, ptr %3, i32 0, i32 0
  %9 = load ptr, ptr %8, align 8
  %10 = getelementptr inbounds nuw { ptr, i32 }, ptr %3, i32 0, i32 1
  %11 = load i32, ptr %10, align 8
  call void @_ZN32pxrInternal_v0_24__pxrReserved__15Tf_EnumRegistry7_RemoveENS_6TfEnumE(ptr noundef nonnull align 8 dereferenceable(344) %6, ptr %9, i32 %11)
  ret void
}

; Function Attrs: mustprogress nounwind uwtable
define linkonce_odr noundef ptr @_ZNKSt9_Any_data9_M_accessEv(ptr noundef nonnull align 8 dereferenceable(16) %0) #5 comdat align 2 {
  %2 = alloca ptr, align 8
  store ptr %0, ptr %2, align 8
  %3 = load ptr, ptr %2, align 8
  %4 = getelementptr inbounds [16 x i8], ptr %3, i64 0, i64 0
  ret ptr %4
}

; Function Attrs: mustprogress uwtable
define internal void @"_ZSt13__invoke_implIvRZN32pxrInternal_v0_24__pxrReserved__6TfEnum8_AddNameES1_PKcS3_E3$_0JEET_St14__invoke_otherOT0_DpOT1_"(ptr noundef nonnull align 8 dereferenceable(24) %0) #4 {
  %2 = alloca ptr, align 8
  store ptr %0, ptr %2, align 8
  %3 = load ptr, ptr %2, align 8
  call void @"_ZZN32pxrInternal_v0_24__pxrReserved__6TfEnum8_AddNameES0_PKcS2_ENK3$_0clEv"(ptr noundef nonnull align 8 dereferenceable(24) %3)
  ret void
}

; Function Attrs: mustprogress nounwind uwtable
define internal noundef nonnull align 8 dereferenceable(8) ptr @"_ZNKSt9_Any_data9_M_accessIPZN32pxrInternal_v0_24__pxrReserved__6TfEnum8_AddNameES2_PKcS4_E3$_0EERKT_v"(ptr noundef nonnull align 8 dereferenceable(16) %0) #5 align 2 {
  %2 = alloca ptr, align 8
  store ptr %0, ptr %2, align 8
  %3 = load ptr, ptr %2, align 8
  %4 = call noundef ptr @_ZNKSt9_Any_data9_M_accessEv(ptr noundef nonnull align 8 dereferenceable(16) %3) #3
  ret ptr %4
}

; Function Attrs: mustprogress uwtable
define internal void @"_ZSt10__invoke_rIvRZN32pxrInternal_v0_24__pxrReserved__6TfEnum8_AddNameES1_PKcS3_E3$_0JEENSt9enable_ifIX16is_invocable_r_vIT_T0_DpT1_EES7_E4typeEOS8_DpOS9_"(ptr noundef nonnull align 8 dereferenceable(24) %0) #4 {
  %2 = alloca ptr, align 8
  store ptr %0, ptr %2, align 8
  %3 = load ptr, ptr %2, align 8
  call void @"_ZSt13__invoke_implIvRZN32pxrInternal_v0_24__pxrReserved__6TfEnum8_AddNameES1_PKcS3_E3$_0JEET_St14__invoke_otherOT0_DpOT1_"(ptr noundef nonnull align 8 dereferenceable(24) %3)
  ret void
}

; Function Attrs: mustprogress nounwind uwtable
define internal noundef ptr @"_ZNSt14_Function_base13_Base_managerIZN32pxrInternal_v0_24__pxrReserved__6TfEnum8_AddNameES2_PKcS4_E3$_0E14_M_get_pointerERKSt9_Any_data"(ptr noundef nonnull align 8 dereferenceable(16) %0) #5 align 2 {
  %2 = alloca ptr, align 8
  store ptr %0, ptr %2, align 8
  %3 = load ptr, ptr %2, align 8
  %4 = call noundef nonnull align 8 dereferenceable(8) ptr @"_ZNKSt9_Any_data9_M_accessIPZN32pxrInternal_v0_24__pxrReserved__6TfEnum8_AddNameES2_PKcS4_E3$_0EERKT_v"(ptr noundef nonnull align 8 dereferenceable(16) %3) #3
  %5 = load ptr, ptr %4, align 8
  ret ptr %5
}

; Function Attrs: mustprogress uwtable
define internal void @"_ZNSt17_Function_handlerIFvvEZN32pxrInternal_v0_24__pxrReserved__6TfEnum8_AddNameES2_PKcS4_E3$_0E9_M_invokeERKSt9_Any_data"(ptr noundef nonnull align 8 dereferenceable(16) %0) #4 align 2 {
  %2 = alloca ptr, align 8
  store ptr %0, ptr %2, align 8
  %3 = load ptr, ptr %2, align 8
  %4 = call noundef ptr @"_ZNSt14_Function_base13_Base_managerIZN32pxrInternal_v0_24__pxrReserved__6TfEnum8_AddNameES2_PKcS4_E3$_0E14_M_get_pointerERKSt9_Any_data"(ptr noundef nonnull align 8 dereferenceable(16) %3) #3
  call void @"_ZSt10__invoke_rIvRZN32pxrInternal_v0_24__pxrReserved__6TfEnum8_AddNameES1_PKcS3_E3$_0JEENSt9enable_ifIX16is_invocable_r_vIT_T0_DpT1_EES7_E4typeEOS8_DpOS9_"(ptr noundef nonnull align 8 dereferenceable(24) %4)
  ret void
}