; Function Attrs: mustprogress uwtable
define internal void @"_ZNSt17_Function_handlerIFvvEZN32pxrInternal_v0_24__pxrReserved__6TfEnum8_AddNameES2_PKcS4_E3$_0E9_M_invokeERKSt9_Any_data"(ptr nocapture noundef nonnull readonly align 8 dereferenceable(16) %0) #3 align 2 {
  %.val = load ptr, ptr %0, align 8
  %2 = load ptr, ptr %.val, align 8
  %3 = getelementptr inbounds nuw i8, ptr %.val, i64 8
  %.sroa.0.0.copyload.i.i.i = load ptr, ptr %3, align 8
  %.sroa.2.0..sroa_idx.i.i.i = getelementptr inbounds i8, ptr %.val, i64 16
  %.sroa.2.0.copyload.i.i.i = load i32, ptr %.sroa.2.0..sroa_idx.i.i.i, align 8
  tail call void @_ZN32pxrInternal_v0_24__pxrReserved__15Tf_EnumRegistry7_RemoveENS_6TfEnumE(ptr noundef nonnull align 8 dereferenceable(344) %2, ptr %.sroa.0.0.copyload.i.i.i, i32 %.sroa.2.0.copyload.i.i.i)
  ret void
}